target datalayout = "e-m:e-p270:32:32-p271:32:32-p272:64:64-i64:64-i128:128-f80:128-n8:16:32:64-S128"
target triple = "x86_64-pc-linux-gnu"

%struct._object = type { %union.anon, ptr }
%union.anon = type { i64 }
%struct.ctypes_state = type { ptr, ptr, ptr, ptr, ptr, ptr, ptr, ptr, ptr, ptr, ptr, ptr, ptr, ptr, ptr, ptr, ptr, ptr, ptr, ptr, ptr, ptr, ptr, ptr, ptr }
%struct.anon = type { i32, i32 }

@PyExc_RuntimeError = external global ptr, align 8
@.str = private unnamed_addr constant [24 x i8] c"cannot get thread state\00", align 1
@.str.1 = private unnamed_addr constant [20 x i8] c"ctypes.error_object\00", align 1
@.str.2 = private unnamed_addr constant [14 x i8] c"_ctypes pymem\00", align 1
@.str.3 = private unnamed_addr constant [42 x i8] c"ctypes.error_object is an invalid capsule\00", align 1

; Function Attrs: alwaysinline nounwind uwtable
define internal i32 @_Py_IsImmortal(ptr noundef %0) #3 {
  %2 = alloca ptr, align 8
  store ptr %0, ptr %2, align 8, !tbaa !9
  %3 = load ptr, ptr %2, align 8, !tbaa !9
  %4 = getelementptr inbounds nuw %struct._object, ptr %3, i32 0, i32 0
  %5 = getelementptr inbounds nuw %struct.anon, ptr %4, i32 0, i32 0
  %6 = load i32, ptr %5, align 8, !tbaa !16
  %7 = icmp slt i32 %6, 0
  %8 = zext i1 %7 to i32
  ret i32 %8
}

; Function Attrs: alwaysinline nounwind uwtable
define internal void @Py_DECREF(ptr noundef %0) #3 {
  %2 = alloca ptr, align 8
  store ptr %0, ptr %2, align 8, !tbaa !9
  %3 = load ptr, ptr %2, align 8, !tbaa !9
  %4 = call i32 @_Py_IsImmortal(ptr noundef %3)
  %5 = icmp ne i32 %4, 0
  br i1 %5, label %6, label %7

6:                                                ; preds = %1
  br label %16

7:                                                ; preds = %1
  %8 = load ptr, ptr %2, align 8, !tbaa !9
  %9 = getelementptr inbounds nuw %struct._object, ptr %8, i32 0, i32 0
  %10 = getelementptr inbounds nuw %struct.anon, ptr %9, i32 0, i32 0
  %11 = load i32, ptr %10, align 8, !tbaa !16
  %12 = add i32 %11, -1
  store i32 %12, ptr %10, align 8, !tbaa !16
  %13 = icmp eq i32 %12, 0
  br i1 %13, label %14, label %16

14:                                               ; preds = %7
  %15 = load ptr, ptr %2, align 8, !tbaa !9
  call void @_Py_Dealloc(ptr noundef %15)
  br label %16

16:                                               ; preds = %6, %14, %7
  ret void
}

; Function Attrs: nounwind uwtable
define hidden ptr @_ctypes_get_errobj(ptr noundef %0, ptr noundef %1) #0 {
  %3 = alloca ptr, align 8
  %4 = alloca ptr, align 8
  %5 = alloca ptr, align 8
  %6 = alloca ptr, align 8
  %7 = alloca ptr, align 8
  %8 = alloca i32, align 4
  %9 = alloca ptr, align 8
  store ptr %0, ptr %4, align 8, !tbaa !3
  store ptr %1, ptr %5, align 8, !tbaa !7
  call void @llvm.lifetime.start.p0(i64 8, ptr %6) #10
  %10 = call ptr @PyThreadState_GetDict()
  store ptr %10, ptr %6, align 8, !tbaa !9
  call void @llvm.lifetime.start.p0(i64 8, ptr %7) #10
  %11 = load ptr, ptr %6, align 8, !tbaa !9
  %12 = icmp eq ptr %11, null
  br i1 %12, label %13, label %15

13:                                               ; preds = %2
  %14 = load ptr, ptr @PyExc_RuntimeError, align 8, !tbaa !9
  call void @PyErr_SetString(ptr noundef %14, ptr noundef @.str)
  store ptr null, ptr %3, align 8
  store i32 1, ptr %8, align 4
  br label %80

15:                                               ; preds = %2
  %16 = load ptr, ptr %4, align 8, !tbaa !3
  %17 = getelementptr inbounds nuw %struct.ctypes_state, ptr %16, i32 0, i32 22
  %18 = load ptr, ptr %17, align 8, !tbaa !11
  %19 = icmp eq ptr %18, null
  br i1 %19, label %20, label %30

20:                                               ; preds = %15
  %21 = call ptr @PyUnicode_InternFromString(ptr noundef @.str.1)
  %22 = load ptr, ptr %4, align 8, !tbaa !3
  %23 = getelementptr inbounds nuw %struct.ctypes_state, ptr %22, i32 0, i32 22
  store ptr %21, ptr %23, align 8, !tbaa !11
  %24 = load ptr, ptr %4, align 8, !tbaa !3
  %25 = getelementptr inbounds nuw %struct.ctypes_state, ptr %24, i32 0, i32 22
  %26 = load ptr, ptr %25, align 8, !tbaa !11
  %27 = icmp eq ptr %26, null
  br i1 %27, label %28, label %29

28:                                               ; preds = %20
  store ptr null, ptr %3, align 8
  store i32 1, ptr %8, align 4
  br label %80

29:                                               ; preds = %20
  br label %30

30:                                               ; preds = %29, %15
  %31 = load ptr, ptr %6, align 8, !tbaa !9
  %32 = load ptr, ptr %4, align 8, !tbaa !3
  %33 = getelementptr inbounds nuw %struct.ctypes_state, ptr %32, i32 0, i32 22
  %34 = load ptr, ptr %33, align 8, !tbaa !11
  %35 = call i32 @PyDict_GetItemRef(ptr noundef %31, ptr noundef %34, ptr noundef %7)
  %36 = icmp slt i32 %35, 0
  br i1 %36, label %37, label %38

37:                                               ; preds = %30
  store ptr null, ptr %3, align 8
  store i32 1, ptr %8, align 4
  br label %80

38:                                               ; preds = %30
  %39 = load ptr, ptr %7, align 8, !tbaa !9
  %40 = icmp ne ptr %39, null
  br i1 %40, label %41, label %49

41:                                               ; preds = %38
  %42 = load ptr, ptr %7, align 8, !tbaa !9
  %43 = call i32 @PyCapsule_IsValid(ptr noundef %42, ptr noundef @.str.2)
  %44 = icmp ne i32 %43, 0
  br i1 %44, label %48, label %45

45:                                               ; preds = %41
  %46 = load ptr, ptr @PyExc_RuntimeError, align 8, !tbaa !9
  call void @PyErr_SetString(ptr noundef %46, ptr noundef @.str.3)
  %47 = load ptr, ptr %7, align 8, !tbaa !9
  call void @Py_DECREF(ptr noundef %47)
  store ptr null, ptr %3, align 8
  store i32 1, ptr %8, align 4
  br label %80

48:                                               ; preds = %41
  br label %75

49:                                               ; preds = %38
  call void @llvm.lifetime.start.p0(i64 8, ptr %9) #10
  %50 = call ptr @PyMem_Calloc(i64 noundef 2, i64 noundef 4)
  store ptr %50, ptr %9, align 8, !tbaa !3
  %51 = load ptr, ptr %9, align 8, !tbaa !3
  %52 = icmp eq ptr %51, null
  br i1 %52, label %53, label %54

53:                                               ; preds = %49
  store ptr null, ptr %3, align 8
  store i32 1, ptr %8, align 4
  br label %72

54:                                               ; preds = %49
  %55 = load ptr, ptr %9, align 8, !tbaa !3
  %56 = call ptr @PyCapsule_New(ptr noundef %55, ptr noundef @.str.2, ptr noundef @pymem_destructor)
  store ptr %56, ptr %7, align 8, !tbaa !9
  %57 = load ptr, ptr %7, align 8, !tbaa !9
  %58 = icmp eq ptr %57, null
  br i1 %58, label %59, label %61

59:                                               ; preds = %54
  %60 = load ptr, ptr %9, align 8, !tbaa !3
  call void @PyMem_Free(ptr noundef %60)
  store ptr null, ptr %3, align 8
  store i32 1, ptr %8, align 4
  br label %72

61:                                               ; preds = %54
  %62 = load ptr, ptr %6, align 8, !tbaa !9
  %63 = load ptr, ptr %4, align 8, !tbaa !3
  %64 = getelementptr inbounds nuw %struct.ctypes_state, ptr %63, i32 0, i32 22
  %65 = load ptr, ptr %64, align 8, !tbaa !11
  %66 = load ptr, ptr %7, align 8, !tbaa !9
  %67 = call i32 @PyDict_SetItem(ptr noundef %62, ptr noundef %65, ptr noundef %66)
  %68 = icmp slt i32 %67, 0
  br i1 %68, label %69, label %71

69:                                               ; preds = %61
  %70 = load ptr, ptr %7, align 8, !tbaa !9
  call void @Py_DECREF(ptr noundef %70)
  store ptr null, ptr %3, align 8
  store i32 1, ptr %8, align 4
  br label %72

71:                                               ; preds = %61
  store i32 0, ptr %8, align 4
  br label %72

72:                                               ; preds = %71, %69, %59, %53
  call void @llvm.lifetime.end.p0(i64 8, ptr %9) #10
  %73 = load i32, ptr %8, align 4
  switch i32 %73, label %80 [
    i32 0, label %74
  ]

74:                                               ; preds = %72
  br label %75

75:                                               ; preds = %74, %48
  %76 = load ptr, ptr %7, align 8, !tbaa !9
  %77 = call ptr @PyCapsule_GetPointer(ptr noundef %76, ptr noundef @.str.2)
  %78 = load ptr, ptr %5, align 8, !tbaa !7
  store ptr %77, ptr %78, align 8, !tbaa !14
  %79 = load ptr, ptr %7, align 8, !tbaa !9
  store ptr %79, ptr %3, align 8
  store i32 1, ptr %8, align 4
  br label %80

80:                                               ; preds = %75, %72, %45, %37, %28, %13
  call void @llvm.lifetime.end.p0(i64 8, ptr %7) #10
  call void @llvm.lifetime.end.p0(i64 8, ptr %6) #10
  %81 = load ptr, ptr %3, align 8
  ret ptr %81
}