; Function Attrs: nounwind uwtable
define hidden ptr @_ctypes_get_errobj(ptr noundef captures(none) %0, ptr noundef writeonly captures(none) %1) local_unnamed_addr #0 {
  %3 = alloca ptr, align 8
  %4 = tail call ptr @PyThreadState_GetDict() #10
  call void @llvm.lifetime.start.p0(i64 8, ptr nonnull %3) #10
  %5 = icmp eq ptr %4, null
  br i1 %5, label %6, label %8

6:                                                ; preds = %2
  %7 = load ptr, ptr @PyExc_RuntimeError, align 8, !tbaa !3
  tail call void @PyErr_SetString(ptr noundef %7, ptr noundef nonnull @.str) #10
  br label %.critedge

8:                                                ; preds = %2
  %9 = getelementptr inbounds nuw i8, ptr %0, i64 176
  %10 = load ptr, ptr %9, align 8, !tbaa !8
  %11 = icmp eq ptr %10, null
  br i1 %11, label %12, label %15

12:                                               ; preds = %8
  %13 = tail call ptr @PyUnicode_InternFromString(ptr noundef nonnull @.str.1) #10
  store ptr %13, ptr %9, align 8, !tbaa !8
  %14 = icmp eq ptr %13, null
  br i1 %14, label %.critedge, label %15

15:                                               ; preds = %12, %8
  %16 = phi ptr [ %13, %12 ], [ %10, %8 ]
  %17 = call i32 @PyDict_GetItemRef(ptr noundef nonnull %4, ptr noundef nonnull %16, ptr noundef nonnull %3) #10
  %18 = icmp slt i32 %17, 0
  br i1 %18, label %.critedge, label %19

19:                                               ; preds = %15
  %20 = load ptr, ptr %3, align 8, !tbaa !3
  %.not = icmp eq ptr %20, null
  br i1 %.not, label %31, label %21

21:                                               ; preds = %19
  %22 = call i32 @PyCapsule_IsValid(ptr noundef nonnull %20, ptr noundef nonnull @.str.2) #10
  %.not18 = icmp eq i32 %22, 0
  br i1 %.not18, label %23, label %49

23:                                               ; preds = %21
  %24 = load ptr, ptr @PyExc_RuntimeError, align 8, !tbaa !3
  call void @PyErr_SetString(ptr noundef %24, ptr noundef nonnull @.str.3) #10
  %25 = load ptr, ptr %3, align 8, !tbaa !3
  %26 = load i32, ptr %25, align 8, !tbaa !11
  %.not.i = icmp sgt i32 %26, -1
  br i1 %.not.i, label %27, label %.critedge

27:                                               ; preds = %23
  %28 = add nsw i32 %26, -1
  store i32 %28, ptr %25, align 8, !tbaa !11
  %29 = icmp eq i32 %28, 0
  br i1 %29, label %30, label %.critedge

30:                                               ; preds = %27
  call void @_Py_Dealloc(ptr noundef nonnull %25) #10
  br label %.critedge

31:                                               ; preds = %19
  %32 = call ptr @PyMem_Calloc(i64 noundef 2, i64 noundef 4) #10
  %33 = icmp eq ptr %32, null
  br i1 %33, label %.critedge, label %34

34:                                               ; preds = %31
  %35 = call ptr @PyCapsule_New(ptr noundef nonnull %32, ptr noundef nonnull @.str.2, ptr noundef nonnull @pymem_destructor) #10
  store ptr %35, ptr %3, align 8, !tbaa !3
  %36 = icmp eq ptr %35, null
  br i1 %36, label %37, label %38

37:                                               ; preds = %34
  call void @PyMem_Free(ptr noundef nonnull %32) #10
  br label %.critedge

38:                                               ; preds = %34
  %39 = load ptr, ptr %9, align 8, !tbaa !8
  %40 = call i32 @PyDict_SetItem(ptr noundef nonnull %4, ptr noundef %39, ptr noundef nonnull %35) #10
  %41 = icmp slt i32 %40, 0
  br i1 %41, label %42, label %49

42:                                               ; preds = %38
  %43 = load ptr, ptr %3, align 8, !tbaa !3
  %44 = load i32, ptr %43, align 8, !tbaa !11
  %.not.i19 = icmp sgt i32 %44, -1
  br i1 %.not.i19, label %45, label %.critedge

45:                                               ; preds = %42
  %46 = add nsw i32 %44, -1
  store i32 %46, ptr %43, align 8, !tbaa !11
  %47 = icmp eq i32 %46, 0
  br i1 %47, label %48, label %.critedge

48:                                               ; preds = %45
  call void @_Py_Dealloc(ptr noundef nonnull %43) #10
  br label %.critedge

49:                                               ; preds = %38, %21
  %50 = load ptr, ptr %3, align 8, !tbaa !3
  %51 = call ptr @PyCapsule_GetPointer(ptr noundef %50, ptr noundef nonnull @.str.2) #10
  store ptr %51, ptr %1, align 8, !tbaa !12
  %52 = load ptr, ptr %3, align 8, !tbaa !3
  br label %.critedge

.critedge:                                        ; preds = %48, %45, %42, %30, %27, %23, %37, %31, %15, %12, %49, %6
  %.0 = phi ptr [ null, %6 ], [ %52, %49 ], [ null, %12 ], [ null, %15 ], [ null, %31 ], [ null, %37 ], [ null, %23 ], [ null, %27 ], [ null, %30 ], [ null, %42 ], [ null, %45 ], [ null, %48 ]
  call void @llvm.lifetime.end.p0(i64 8, ptr nonnull %3) #10
  ret ptr %.0
}